Certificate:
    Data:
        Version: 3 (0x2)
        Serial Number: 1 (0x1)
        Signature Algorithm: sha1WithRSAEncryption
        Issuer: DC=org, DC=simple, O=Simple Inc, OU=Simple Signing CA, CN=Simple Signing CA
        Validity
            Not Before: Dec  3 06:50:22 2023 GMT
            Not After : Dec  2 06:50:22 2025 GMT
        Subject: DC=org, DC=simple, O=Simple Inc, CN=Fred Flintstone
        Subject Public Key Info:
            Public Key Algorithm: rsaEncryption
                Public-Key: (2048 bit)
                Modulus:
                    00:8c:57:35:d2:67:ff:82:56:df:42:b2:ad:13:12:
                    05:af:f2:a7:c9:93:bb:fc:94:14:0a:a1:62:cd:e7:
                    28:29:b8:1e:67:84:3e:55:d2:b2:2b:fb:0c:2a:83:
                    7e:26:c8:ad:c5:77:fc:c9:fb:1a:a2:0f:5a:ee:6d:
                    80:5c:b8:60:ac:3a:b1:36:01:38:8c:1d:46:4b:74:
                    fc:f4:f2:a0:92:68:00:f3:d9:87:a5:42:d6:ad:a2:
                    42:1f:b7:7e:bd:c8:48:42:b6:f3:a1:cd:07:1d:9b:
                    eb:74:2c:de:8b:da:6d:3a:d0:91:cc:b5:95:c1:7d:
                    b7:48:1e:5a:16:c2:e4:12:10:d2:5e:13:08:fd:f7:
                    6b:eb:e6:52:6f:58:ea:fe:9d:fe:59:87:58:40:ec:
                    34:65:6c:15:a9:60:df:8b:0d:76:53:54:ef:fb:ee:
                    21:34:6e:ea:d1:30:b2:85:2b:38:50:2b:9f:9f:f8:
                    47:6e:2a:f7:aa:9d:76:45:c6:89:ae:8b:18:4a:79:
                    20:02:de:f4:2f:4c:22:80:c1:ee:6f:f3:b6:bf:51:
                    2d:e7:94:ab:28:c8:45:e0:37:7d:fd:8c:54:cd:0c:
                    29:42:a7:f2:71:03:5e:d7:ee:37:18:45:3e:24:62:
                    13:ba:d7:10:23:99:e2:3c:d3:9d:74:35:8a:34:8c:
                    39:63
                Exponent: 65537 (0x10001)
        X509v3 extensions:
            X509v3 Key Usage: critical
                Digital Signature, Key Encipherment
            X509v3 Basic Constraints: 
                CA:FALSE
            X509v3 Extended Key Usage: 
                E-mail Protection, TLS Web Client Authentication
            X509v3 Subject Key Identifier: 
                3D:E5:15:0D:AC:8A:C2:C6:09:24:25:B9:8A:FE:46:EA:51:03:C5:53
            X509v3 Authority Key Identifier: 
                C3:BE:7E:B1:6C:E9:E1:0D:6A:E3:E7:06:8F:BE:5E:18:C5:87:1D:AD
            X509v3 Subject Alternative Name: 
                email:fred@simple.org
    Signature Algorithm: sha1WithRSAEncryption
    Signature Value:
        1c:fe:07:81:3c:80:93:a8:a8:80:57:6d:d3:dc:a1:fa:40:0d:
        1b:c7:1a:6a:05:f9:21:7b:57:02:83:98:f3:e8:3e:b2:a2:4e:
        df:52:78:1a:65:fa:6a:d4:58:8b:68:20:22:d3:aa:56:14:12:
        27:9b:14:79:4e:87:4a:74:03:f6:61:7a:2f:b9:d3:33:dd:86:
        3c:88:04:a8:0c:41:de:1b:53:7b:f7:38:88:bb:38:cf:7a:b5:
        78:3d:c5:eb:45:24:e0:65:63:61:61:d2:e5:e5:bd:4e:0b:44:
        1a:eb:70:e8:11:64:f4:33:16:1c:43:73:17:6b:72:24:5d:89:
        1e:70:2f:4e:ec:34:f7:29:54:ae:55:12:cf:05:66:23:3d:cd:
        ea:c9:92:89:08:c1:07:bd:54:e0:96:8b:95:62:25:f1:49:ac:
        59:44:13:43:dd:7a:e2:7e:ce:16:18:81:62:ad:c0:61:5e:3d:
        94:4e:62:c3:cd:2a:20:62:4b:c6:27:00:b5:ff:32:d4:a7:c8:
        07:06:81:3b:f1:c9:f7:ce:29:6d:3e:21:a7:1b:5a:d4:66:d5:
        98:20:73:5c:d3:8c:d1:b3:e7:08:6d:a2:35:3a:11:05:73:6e:
        ab:3b:bd:7e:1c:3c:f3:7c:eb:42:4f:92:8f:c0:d0:df:36:d1:
        35:ee:2c:d9
-----BEGIN CERTIFICATE-----
MIID6zCCAtOgAwIBAgIBATANBgkqhkiG9w0BAQUFADB6MRMwEQYKCZImiZPyLGQB
GRYDb3JnMRYwFAYKCZImiZPyLGQBGRYGc2ltcGxlMRMwEQYDVQQKDApTaW1wbGUg
SW5jMRowGAYDVQQLDBFTaW1wbGUgU2lnbmluZyBDQTEaMBgGA1UEAwwRU2ltcGxl
IFNpZ25pbmcgQ0EwHhcNMjMxMjAzMDY1MDIyWhcNMjUxMjAyMDY1MDIyWjBcMRMw
EQYKCZImiZPyLGQBGRYDb3JnMRYwFAYKCZImiZPyLGQBGRYGc2ltcGxlMRMwEQYD
VQQKDApTaW1wbGUgSW5jMRgwFgYDVQQDDA9GcmVkIEZsaW50c3RvbmUwggEiMA0G
CSqGSIb3DQEBAQUAA4IBDwAwggEKAoIBAQCMVzXSZ/+CVt9Csq0TEgWv8qfJk7v8
lBQKoWLN5ygpuB5nhD5V0rIr+wwqg34myK3Fd/zJ+xqiD1rubYBcuGCsOrE2ATiM
HUZLdPz08qCSaADz2YelQtatokIft369yEhCtvOhzQcdm+t0LN6L2m060JHMtZXB
fbdIHloWwuQSENJeEwj992vr5lJvWOr+nf5Zh1hA7DRlbBWpYN+LDXZTVO/77iE0
burRMLKFKzhQK5+f+EduKveqnXZFxomuixhKeSAC3vQvTCKAwe5v87a/US3nlKso
yEXgN339jFTNDClCp/JxA17X7jcYRT4kYhO61xAjmeI80510NYo0jDljAgMBAAGj
gZkwgZYwDgYDVR0PAQH/BAQDAgWgMAkGA1UdEwQCMAAwHQYDVR0lBBYwFAYIKwYB
BQUHAwQGCCsGAQUFBwMCMB0GA1UdDgQWBBQ95RUNrIrCxgkkJbmK/kbqUQPFUzAf
BgNVHSMEGDAWgBTDvn6xbOnhDWrj5waPvl4YxYcdrTAaBgNVHREEEzARgQ9mcmVk
QHNpbXBsZS5vcmcwDQYJKoZIhvcNAQEFBQADggEBABz+B4E8gJOoqIBXbdPcofpA
DRvHGmoF+SF7VwKDmPPoPrKiTt9SeBpl+mrUWItoICLTqlYUEiebFHlOh0p0A/Zh
ei+50zPdhjyIBKgMQd4bU3v3OIi7OM96tXg9xetFJOBlY2Fh0uXlvU4LRBrrcOgR
ZPQzFhxDcxdrciRdiR5wL07sNPcpVK5VEs8FZiM9zerJkokIwQe9VOCWi5ViJfFJ
rFlEE0PdeuJ+zhYYgWKtwGFePZROYsPNKiBiS8YnALX/MtSnyAcGgTvxyffOKW0+
IacbWtRm1Zggc1zTjNGz5whtojU6EQVzbqs7vX4cPPN860JPko/A0N820TXuLNk=
-----END CERTIFICATE-----
