Certificate:
    Data:
        Version: 3 (0x2)
        Serial Number: 2 (0x2)
        Signature Algorithm: sha1WithRSAEncryption
        Issuer: DC=org, DC=simple, O=Simple Inc, OU=Simple Signing CA, CN=Simple Signing CA
        Validity
            Not Before: Dec  3 07:34:55 2023 GMT
            Not After : Dec  2 07:34:55 2025 GMT
        Subject: DC=org, DC=simple, O=Simple Inc, CN=www.simple.org
        Subject Public Key Info:
            Public Key Algorithm: rsaEncryption
                Public-Key: (2048 bit)
                Modulus:
                    00:ac:27:7d:ba:46:8e:2c:7d:d7:6a:08:e6:d5:bb:
                    43:d0:83:0e:a4:63:4b:7e:d5:0e:d9:40:56:72:85:
                    c7:e0:57:84:35:3b:fe:72:6a:19:f4:5c:c4:4e:d6:
                    ae:39:e8:7a:9f:1a:8b:91:af:22:08:66:c9:5b:2e:
                    53:e3:b1:84:3c:89:89:15:3a:71:0c:94:15:1e:dd:
                    0e:e1:b1:f0:b3:9c:b2:e2:96:88:e2:36:03:c5:77:
                    ac:ba:75:4d:e7:d2:35:c1:83:e9:ff:b9:80:c5:7a:
                    c9:8f:90:e0:70:bc:b9:01:82:fe:62:2f:e0:27:15:
                    c3:42:61:d0:53:94:d7:a8:d3:45:ce:6a:cf:2d:e6:
                    96:ea:73:8f:50:18:2a:e3:9f:e7:b3:3f:30:9c:62:
                    b8:c8:35:d7:83:b1:88:73:9c:a2:1f:77:22:18:7e:
                    a9:d2:4d:b7:bd:57:b9:49:f5:8f:42:7b:b2:37:d9:
                    8b:68:7e:8a:45:e4:95:8f:ba:32:9f:5f:63:bb:53:
                    18:3a:26:05:59:a6:4a:5f:9d:12:0a:a8:23:e4:59:
                    36:4e:ea:b1:a2:a1:e8:86:01:58:50:30:cb:0c:81:
                    03:8f:0e:1f:6e:6d:b4:37:82:cc:e4:ea:d0:4a:1d:
                    98:70:bc:fb:d7:59:cd:35:b2:61:27:20:92:f9:a2:
                    23:19
                Exponent: 65537 (0x10001)
        X509v3 extensions:
            X509v3 Key Usage: critical
                Digital Signature, Key Encipherment
            X509v3 Basic Constraints: 
                CA:FALSE
            X509v3 Extended Key Usage: 
                TLS Web Server Authentication, TLS Web Client Authentication
            X509v3 Subject Key Identifier: 
                DF:AB:14:11:21:85:A4:39:4A:C4:17:3B:DC:98:22:18:5B:92:6A:33
            X509v3 Authority Key Identifier: 
                C3:BE:7E:B1:6C:E9:E1:0D:6A:E3:E7:06:8F:BE:5E:18:C5:87:1D:AD
            X509v3 Subject Alternative Name: 
                DNS:www.simple.org
    Signature Algorithm: sha1WithRSAEncryption
    Signature Value:
        80:c9:89:2c:cc:46:4c:49:bd:78:0e:bb:14:e2:d4:aa:0c:1d:
        da:7f:d9:ff:40:70:4d:71:a3:be:90:be:34:5c:47:17:b8:3f:
        8f:cf:62:c9:ee:ab:79:ec:a0:04:9a:3e:f9:35:3e:80:50:5a:
        cb:b4:76:f8:29:80:91:05:21:63:e2:1b:66:90:e4:9c:e7:65:
        36:6b:79:a9:cf:67:b1:02:57:c9:1a:36:ab:d9:8f:4b:16:0d:
        66:b3:17:51:03:60:0e:4c:6b:aa:c1:b4:11:3a:10:3e:de:44:
        f9:c7:36:33:d3:08:d9:93:e5:79:8f:ae:9d:6c:ce:75:e1:9c:
        23:93:41:9b:2c:e0:da:59:2a:da:1c:12:d2:80:5d:b9:b7:94:
        4d:3f:39:45:ed:5a:0c:e8:9e:81:c2:0c:f7:e7:a4:46:81:13:
        15:ba:80:03:b4:ba:bf:38:79:7c:66:8e:fa:06:1f:09:31:14:
        6e:97:8e:eb:94:c9:e6:2d:54:62:6a:c9:b5:48:a3:1d:ad:e4:
        5b:c0:55:13:3b:25:11:01:59:52:99:9d:1e:d5:7c:c1:56:09:
        81:a7:70:99:fb:60:12:eb:39:ee:fd:ce:2d:26:83:21:e0:93:
        0a:1f:ac:7f:69:a9:cf:4f:fb:51:5d:62:c2:47:e1:92:96:8c:
        ca:cc:6a:53
-----BEGIN CERTIFICATE-----
MIID6TCCAtGgAwIBAgIBAjANBgkqhkiG9w0BAQUFADB6MRMwEQYKCZImiZPyLGQB
GRYDb3JnMRYwFAYKCZImiZPyLGQBGRYGc2ltcGxlMRMwEQYDVQQKDApTaW1wbGUg
SW5jMRowGAYDVQQLDBFTaW1wbGUgU2lnbmluZyBDQTEaMBgGA1UEAwwRU2ltcGxl
IFNpZ25pbmcgQ0EwHhcNMjMxMjAzMDczNDU1WhcNMjUxMjAyMDczNDU1WjBbMRMw
EQYKCZImiZPyLGQBGRYDb3JnMRYwFAYKCZImiZPyLGQBGRYGc2ltcGxlMRMwEQYD
VQQKDApTaW1wbGUgSW5jMRcwFQYDVQQDDA53d3cuc2ltcGxlLm9yZzCCASIwDQYJ
KoZIhvcNAQEBBQADggEPADCCAQoCggEBAKwnfbpGjix912oI5tW7Q9CDDqRjS37V
DtlAVnKFx+BXhDU7/nJqGfRcxE7Wrjnoep8ai5GvIghmyVsuU+OxhDyJiRU6cQyU
FR7dDuGx8LOcsuKWiOI2A8V3rLp1TefSNcGD6f+5gMV6yY+Q4HC8uQGC/mIv4CcV
w0Jh0FOU16jTRc5qzy3mlupzj1AYKuOf57M/MJxiuMg114OxiHOcoh93Ihh+qdJN
t71XuUn1j0J7sjfZi2h+ikXklY+6Mp9fY7tTGDomBVmmSl+dEgqoI+RZNk7qsaKh
6IYBWFAwywyBA48OH25ttDeCzOTq0EodmHC8+9dZzTWyYScgkvmiIxkCAwEAAaOB
mDCBlTAOBgNVHQ8BAf8EBAMCBaAwCQYDVR0TBAIwADAdBgNVHSUEFjAUBggrBgEF
BQcDAQYIKwYBBQUHAwIwHQYDVR0OBBYEFN+rFBEhhaQ5SsQXO9yYIhhbkmozMB8G
A1UdIwQYMBaAFMO+frFs6eENauPnBo++XhjFhx2tMBkGA1UdEQQSMBCCDnd3dy5z
aW1wbGUub3JnMA0GCSqGSIb3DQEBBQUAA4IBAQCAyYkszEZMSb14DrsU4tSqDB3a
f9n/QHBNcaO+kL40XEcXuD+Pz2LJ7qt57KAEmj75NT6AUFrLtHb4KYCRBSFj4htm
kOSc52U2a3mpz2exAlfJGjar2Y9LFg1msxdRA2AOTGuqwbQROhA+3kT5xzYz0wjZ
k+V5j66dbM514Zwjk0GbLODaWSraHBLSgF25t5RNPzlF7VoM6J6Bwgz356RGgRMV
uoADtLq/OHl8Zo76Bh8JMRRul47rlMnmLVRiasm1SKMdreRbwFUTOyURAVlSmZ0e
1XzBVgmBp3CZ+2AS6znu/c4tJoMh4JMKH6x/aanPT/tRXWLCR+GSlozKzGpT
-----END CERTIFICATE-----
