Certificate:
    Data:
        Version: 3 (0x2)
        Serial Number: 1 (0x1)
        Signature Algorithm: sha1WithRSAEncryption
        Issuer: DC=org, DC=simple, O=Simple Inc, OU=Simple Root CA, CN=Simple Root CA
        Validity
            Not Before: Dec  3 06:31:35 2023 GMT
            Not After : Dec  2 06:31:35 2033 GMT
        Subject: DC=org, DC=simple, O=Simple Inc, OU=Simple Root CA, CN=Simple Root CA
        Subject Public Key Info:
            Public Key Algorithm: rsaEncryption
                Public-Key: (2048 bit)
                Modulus:
                    00:bb:7c:4b:88:a9:38:65:63:e8:bd:75:22:51:67:
                    de:75:bd:70:4c:e0:17:e1:55:30:a3:ff:df:fa:4a:
                    98:86:65:10:93:7a:bb:67:14:a7:1f:e3:b5:9f:a8:
                    62:7c:46:ab:a4:cc:04:e8:a3:43:ea:ec:9b:f4:f6:
                    16:41:8e:40:e8:03:ad:dc:c1:48:76:06:aa:eb:93:
                    dd:d8:86:63:98:cb:11:de:8d:75:b6:b2:38:c4:83:
                    90:32:75:16:f7:5b:cb:c2:d7:95:cf:50:58:90:9b:
                    64:1c:57:06:ea:90:c1:75:06:4e:79:04:50:36:19:
                    79:50:5f:44:55:39:62:fd:63:29:b2:22:ae:0f:5a:
                    7e:31:61:b1:a8:e8:fe:9e:87:1c:d0:a5:2f:2c:a5:
                    15:03:32:c8:f8:d7:75:06:3c:44:e8:5f:00:db:4b:
                    f6:18:ea:b8:30:7b:9a:d7:4b:86:88:4c:24:a3:93:
                    ba:f7:ad:4f:56:73:74:c6:40:86:79:3a:91:1a:2a:
                    7f:04:a8:99:b7:68:7f:d7:fc:20:ca:5f:00:b8:80:
                    0d:3c:51:d5:87:19:3e:47:e7:c4:50:cf:4e:52:3e:
                    56:0e:f1:a7:3f:11:16:3b:6e:cb:fa:dd:f8:e1:f8:
                    31:c3:07:fb:35:aa:89:91:da:49:91:c4:08:cf:99:
                    62:b3
                Exponent: 65537 (0x10001)
        X509v3 extensions:
            X509v3 Key Usage: critical
                Certificate Sign, CRL Sign
            X509v3 Basic Constraints: critical
                CA:TRUE
            X509v3 Subject Key Identifier: 
                C6:CD:B8:94:EA:DE:8A:D7:6C:E7:EA:41:BD:E9:C3:F7:4D:A0:B7:BA
            X509v3 Authority Key Identifier: 
                C6:CD:B8:94:EA:DE:8A:D7:6C:E7:EA:41:BD:E9:C3:F7:4D:A0:B7:BA
    Signature Algorithm: sha1WithRSAEncryption
    Signature Value:
        6e:15:bd:47:1a:04:51:5a:0f:83:7a:4a:d5:93:a5:57:ea:08:
        26:43:8c:3e:68:e1:4d:6c:a2:a4:6a:aa:98:41:04:b1:32:b1:
        f6:0e:7b:81:10:05:65:4c:ef:7d:8e:19:cb:8b:32:a0:ea:a2:
        9c:49:02:d7:88:4e:fa:50:9d:a4:87:bf:15:d5:5c:e4:3c:53:
        b0:47:59:26:84:8e:5f:34:19:3b:06:aa:c9:ba:a1:bd:37:d6:
        7a:6c:bd:52:5c:e2:ac:1d:75:32:5e:4a:aa:0e:6f:8c:40:8f:
        b8:e2:31:41:16:01:7f:3f:08:34:db:81:a4:8f:52:bc:2d:a1:
        e6:eb:07:41:4c:ea:a7:b5:b0:bf:16:e7:c9:e1:74:71:2c:01:
        11:43:f7:77:62:09:b7:a9:a9:a8:4a:d6:4d:ee:e2:be:2c:96:
        ab:74:29:1c:37:f7:d5:72:14:76:59:67:69:c5:a5:0a:87:2f:
        3e:7c:06:7e:de:53:f0:c0:0f:f4:83:d6:ae:cb:d5:11:2c:a2:
        54:76:2c:ab:61:c3:35:74:b0:c8:f5:63:81:91:03:35:cc:49:
        c9:6b:fb:dd:9d:d0:06:28:3b:af:4c:08:82:9f:68:b2:07:8f:
        82:5f:38:53:97:e6:13:d7:5e:47:f9:84:a5:df:ab:21:4b:1d:
        cf:12:e5:07
-----BEGIN CERTIFICATE-----
MIIDxjCCAq6gAwIBAgIBATANBgkqhkiG9w0BAQUFADB0MRMwEQYKCZImiZPyLGQB
GRYDb3JnMRYwFAYKCZImiZPyLGQBGRYGc2ltcGxlMRMwEQYDVQQKDApTaW1wbGUg
SW5jMRcwFQYDVQQLDA5TaW1wbGUgUm9vdCBDQTEXMBUGA1UEAwwOU2ltcGxlIFJv
b3QgQ0EwHhcNMjMxMjAzMDYzMTM1WhcNMzMxMjAyMDYzMTM1WjB0MRMwEQYKCZIm
iZPyLGQBGRYDb3JnMRYwFAYKCZImiZPyLGQBGRYGc2ltcGxlMRMwEQYDVQQKDApT
aW1wbGUgSW5jMRcwFQYDVQQLDA5TaW1wbGUgUm9vdCBDQTEXMBUGA1UEAwwOU2lt
cGxlIFJvb3QgQ0EwggEiMA0GCSqGSIb3DQEBAQUAA4IBDwAwggEKAoIBAQC7fEuI
qThlY+i9dSJRZ951vXBM4BfhVTCj/9/6SpiGZRCTertnFKcf47WfqGJ8RqukzATo
o0Pq7Jv09hZBjkDoA63cwUh2Bqrrk93YhmOYyxHejXW2sjjEg5AydRb3W8vC15XP
UFiQm2QcVwbqkMF1Bk55BFA2GXlQX0RVOWL9YymyIq4PWn4xYbGo6P6ehxzQpS8s
pRUDMsj413UGPEToXwDbS/YY6rgwe5rXS4aITCSjk7r3rU9Wc3TGQIZ5OpEaKn8E
qJm3aH/X/CDKXwC4gA08UdWHGT5H58RQz05SPlYO8ac/ERY7bsv63fjh+DHDB/s1
qomR2kmRxAjPmWKzAgMBAAGjYzBhMA4GA1UdDwEB/wQEAwIBBjAPBgNVHRMBAf8E
BTADAQH/MB0GA1UdDgQWBBTGzbiU6t6K12zn6kG96cP3TaC3ujAfBgNVHSMEGDAW
gBTGzbiU6t6K12zn6kG96cP3TaC3ujANBgkqhkiG9w0BAQUFAAOCAQEAbhW9RxoE
UVoPg3pK1ZOlV+oIJkOMPmjhTWyipGqqmEEEsTKx9g57gRAFZUzvfY4Zy4syoOqi
nEkC14hO+lCdpIe/FdVc5DxTsEdZJoSOXzQZOwaqybqhvTfWemy9UlzirB11Ml5K
qg5vjECPuOIxQRYBfz8INNuBpI9SvC2h5usHQUzqp7WwvxbnyeF0cSwBEUP3d2IJ
t6mpqErWTe7iviyWq3QpHDf31XIUdllnacWlCocvPnwGft5T8MAP9IPWrsvVESyi
VHYsq2HDNXSwyPVjgZEDNcxJyWv73Z3QBig7r0wIgp9osgePgl84U5fmE9deR/mE
pd+rIUsdzxLlBw==
-----END CERTIFICATE-----
