Certificate:
    Data:
        Version: 3 (0x2)
        Serial Number: 2 (0x2)
        Signature Algorithm: sha1WithRSAEncryption
        Issuer: DC=org, DC=simple, O=Simple Inc, OU=Simple Root CA, CN=Simple Root CA
        Validity
            Not Before: Dec  3 06:42:57 2023 GMT
            Not After : Dec  2 06:42:57 2033 GMT
        Subject: DC=org, DC=simple, O=Simple Inc, OU=Simple Signing CA, CN=Simple Signing CA
        Subject Public Key Info:
            Public Key Algorithm: rsaEncryption
                Public-Key: (2048 bit)
                Modulus:
                    00:95:d2:d8:c8:14:a4:7e:45:77:60:0c:9c:66:8b:
                    88:62:42:cc:9c:8e:27:b9:29:d7:17:fa:cd:84:d8:
                    1b:16:80:7a:8e:69:ed:0e:bd:c7:25:88:40:46:cb:
                    ab:11:a6:0f:ef:32:0a:18:db:af:61:b3:db:ba:89:
                    9c:c0:36:75:ba:80:a5:60:2b:06:a6:e0:ad:c6:4c:
                    0e:a3:ba:7e:87:57:3f:00:59:fb:26:86:af:da:e1:
                    e2:35:87:37:1b:90:8d:d9:81:11:df:84:57:42:35:
                    d0:22:17:36:3f:0c:3f:a1:96:26:d0:36:8a:dc:a9:
                    0c:b4:5a:57:fb:4e:ea:9e:ea:4b:06:ea:d4:1e:77:
                    0b:51:7e:96:f9:66:ef:22:20:40:1a:9c:b0:a1:d1:
                    8d:44:7c:b7:6d:8f:a9:cf:52:7b:48:a7:9f:10:40:
                    cc:84:dd:5f:23:be:52:36:4d:e3:2e:f0:8c:bb:51:
                    7d:32:72:6a:fd:0f:7c:4b:0c:cf:cb:3e:b5:d4:8a:
                    85:eb:21:d0:25:a9:c6:64:24:44:e4:70:bb:7a:57:
                    8c:80:f6:3a:10:a2:35:66:3d:a4:c9:53:19:4f:16:
                    51:53:69:e9:c7:6c:6d:59:9b:9b:7a:90:f7:d5:ad:
                    87:66:b4:d4:52:27:c1:62:e5:3b:13:b4:e2:fa:c1:
                    4c:37
                Exponent: 65537 (0x10001)
        X509v3 extensions:
            X509v3 Key Usage: critical
                Certificate Sign, CRL Sign
            X509v3 Basic Constraints: critical
                CA:TRUE, pathlen:0
            X509v3 Subject Key Identifier: 
                C3:BE:7E:B1:6C:E9:E1:0D:6A:E3:E7:06:8F:BE:5E:18:C5:87:1D:AD
            X509v3 Authority Key Identifier: 
                C6:CD:B8:94:EA:DE:8A:D7:6C:E7:EA:41:BD:E9:C3:F7:4D:A0:B7:BA
    Signature Algorithm: sha1WithRSAEncryption
    Signature Value:
        84:8e:13:a9:56:bd:f3:b4:9a:d4:da:59:39:da:f0:bc:46:0a:
        6e:66:fc:fc:dd:19:bc:f3:59:7f:c5:b6:47:b7:3c:5f:c3:33:
        bb:8c:23:8f:d1:bb:c6:06:c3:b9:33:03:2a:ef:99:5e:13:0a:
        00:5c:51:f3:cf:5e:ed:84:68:b4:72:80:ab:88:53:f4:b8:f3:
        45:d4:f2:8c:14:6f:bf:93:12:53:6a:56:44:aa:1f:b3:88:93:
        91:67:2f:67:a2:c9:3d:1d:e2:78:67:16:e6:04:80:c1:c4:78:
        eb:a6:56:59:57:56:d7:aa:38:40:e7:54:a4:7c:22:29:ad:8c:
        21:36:c6:d5:17:0b:9d:37:e0:cc:9d:97:26:6a:da:da:35:b2:
        40:25:91:e5:4b:30:f1:00:de:2d:a6:5d:f8:39:2a:2e:4c:4d:
        f2:e1:0e:a1:6d:c4:d2:2c:94:30:44:93:a7:ed:be:7e:e6:26:
        34:f1:ba:1b:7c:e1:51:5e:90:95:75:d6:fb:b4:b5:da:9b:b7:
        39:c4:18:c3:f3:6f:36:11:dc:83:b1:fb:b2:97:0b:16:bd:e8:
        73:d1:37:b4:3d:25:32:10:19:e0:28:81:87:5c:09:0d:23:00:
        0b:30:4d:78:58:1f:81:1a:47:18:60:d2:28:7e:ea:ec:8f:be:
        ab:ce:1d:53
-----BEGIN CERTIFICATE-----
MIIDzzCCAregAwIBAgIBAjANBgkqhkiG9w0BAQUFADB0MRMwEQYKCZImiZPyLGQB
GRYDb3JnMRYwFAYKCZImiZPyLGQBGRYGc2ltcGxlMRMwEQYDVQQKDApTaW1wbGUg
SW5jMRcwFQYDVQQLDA5TaW1wbGUgUm9vdCBDQTEXMBUGA1UEAwwOU2ltcGxlIFJv
b3QgQ0EwHhcNMjMxMjAzMDY0MjU3WhcNMzMxMjAyMDY0MjU3WjB6MRMwEQYKCZIm
iZPyLGQBGRYDb3JnMRYwFAYKCZImiZPyLGQBGRYGc2ltcGxlMRMwEQYDVQQKDApT
aW1wbGUgSW5jMRowGAYDVQQLDBFTaW1wbGUgU2lnbmluZyBDQTEaMBgGA1UEAwwR
U2ltcGxlIFNpZ25pbmcgQ0EwggEiMA0GCSqGSIb3DQEBAQUAA4IBDwAwggEKAoIB
AQCV0tjIFKR+RXdgDJxmi4hiQsycjie5KdcX+s2E2BsWgHqOae0OvccliEBGy6sR
pg/vMgoY269hs9u6iZzANnW6gKVgKwam4K3GTA6jun6HVz8AWfsmhq/a4eI1hzcb
kI3ZgRHfhFdCNdAiFzY/DD+hlibQNorcqQy0Wlf7Tuqe6ksG6tQedwtRfpb5Zu8i
IEAanLCh0Y1EfLdtj6nPUntIp58QQMyE3V8jvlI2TeMu8Iy7UX0ycmr9D3xLDM/L
PrXUioXrIdAlqcZkJETkcLt6V4yA9joQojVmPaTJUxlPFlFTaenHbG1Zm5t6kPfV
rYdmtNRSJ8Fi5TsTtOL6wUw3AgMBAAGjZjBkMA4GA1UdDwEB/wQEAwIBBjASBgNV
HRMBAf8ECDAGAQH/AgEAMB0GA1UdDgQWBBTDvn6xbOnhDWrj5waPvl4YxYcdrTAf
BgNVHSMEGDAWgBTGzbiU6t6K12zn6kG96cP3TaC3ujANBgkqhkiG9w0BAQUFAAOC
AQEAhI4TqVa987Sa1NpZOdrwvEYKbmb8/N0ZvPNZf8W2R7c8X8Mzu4wjj9G7xgbD
uTMDKu+ZXhMKAFxR889e7YRotHKAq4hT9LjzRdTyjBRvv5MSU2pWRKofs4iTkWcv
Z6LJPR3ieGcW5gSAwcR466ZWWVdW16o4QOdUpHwiKa2MITbG1RcLnTfgzJ2XJmra
2jWyQCWR5Usw8QDeLaZd+DkqLkxN8uEOoW3E0iyUMESTp+2+fuYmNPG6G3zhUV6Q
lXXW+7S12pu3OcQYw/NvNhHcg7H7spcLFr3oc9E3tD0lMhAZ4CiBh1wJDSMACzBN
eFgfgRpHGGDSKH7q7I++q84dUw==
-----END CERTIFICATE-----
